Certificate:
    Data:
        Version: 1 (0x0)
        Serial Number: 1 (0x1)
        Signature Algorithm: sha1WithRSAEncryption
        Issuer: C=AU, ST=Some-State, O=Internet Widgits Pty Ltd
        Validity
            Not Before: Aug 26 17:16:12 2016 GMT
            Not After : Aug 26 17:16:12 2017 GMT
        Subject: CN=localhost
        Subject Public Key Info:
            Public Key Algorithm: rsaEncryption
            RSA Public Key: (2048 bit)
                Modulus (2048 bit):
                    00:99:08:47:36:45:ee:39:ae:70:ca:67:6b:d4:d8:
                    22:9b:b3:58:ff:9e:39:14:c4:e1:64:32:fb:0f:d2:
                    55:06:a7:66:2d:04:68:12:7c:37:5e:25:30:47:f6:
                    4e:2d:21:c2:02:30:d7:73:af:a4:63:a9:91:8e:1e:
                    76:67:45:0b:b7:00:06:6d:f6:bf:7b:fb:21:eb:56:
                    49:8a:2a:c2:2c:d4:75:29:a9:db:67:68:d7:09:9c:
                    66:a7:d1:cd:04:40:a6:eb:f8:c8:6e:91:ab:e3:e4:
                    2c:55:c4:4f:60:a9:1b:8b:58:81:84:c5:ff:68:3d:
                    ef:f7:13:58:14:2a:9d:a3:0a:93:54:73:8e:6c:9b:
                    2a:3a:c3:4b:11:bc:fe:b6:b3:d7:6c:83:37:c2:2c:
                    33:80:1f:94:7a:ea:a2:65:3e:15:22:46:71:b5:4f:
                    57:ea:38:43:67:09:16:17:51:15:5f:21:b1:c2:92:
                    db:b1:99:a8:7a:b7:90:8c:65:18:e6:61:c1:fc:8e:
                    e9:af:d3:a2:4d:68:7a:76:50:e0:d2:cd:13:00:1e:
                    a4:38:59:1c:01:88:44:d4:6a:cd:3f:5a:41:99:08:
                    2c:e7:41:cd:93:5e:1a:c8:4c:c3:f9:a3:aa:2c:62:
                    2b:ee:0b:07:76:cd:db:6e:e7:7a:ad:dd:de:c5:5a:
                    24:4b
                Exponent: 65537 (0x10001)
    Signature Algorithm: sha1WithRSAEncryption
        b4:6e:cb:3c:1e:54:a7:bc:5a:b1:04:dc:9b:ca:d0:09:8c:d3:
        6a:72:23:8e:3f:a1:4c:0e:f7:30:fc:76:ea:3f:4d:16:ba:b2:
        12:17:4c:0a:4d:72:38:b1:45:5a:d0:42:8d:b7:31:10:ce:d2:
        d0:5b:79:78:be:42:21:18:70:4a:e3:64:e0:fc:8e:e7:7c:5c:
        0c:5a:9f:3f:68:f4:ca:94:f3:ef:76:3a:fb:18:ec:e8:cb:76:
        cd:f4:4e:de:6a:61:8a:60:b5:b6:2d:fb:80:01:c1:20:22:7b:
        1d:7f:77:f2:b5:4d:b1:01:b1:12:ea:c0:02:35:f9:95:2d:05:
        35:17:ef:6a:8a:5b:58:56:28:87:3e:57:43:af:2b:3e:47:51:
        c7:99:ba:85:9a:37:9d:10:b9:ab:b5:d7:96:fe:11:35:86:4b:
        32:e4:43:b7:db:22:3c:49:cd:27:fb:3b:8e:99:86:77:54:0b:
        67:81:ab:fc:8a:76:6c:5f:27:5e:a3:8c:6d:26:ab:1a:05:ac:
        00:cd:0f:9a:c1:d8:2c:86:5a:e6:66:bd:d1:c8:8d:e4:ed:b9:
        05:f8:97:ab:eb:87:20:b4:57:6d:8d:63:25:2f:e5:62:32:92:
        71:c6:6c:df:bd:31:a3:71:19:c3:dc:d4:05:b6:06:70:77:2b:
        e8:4a:16:a9
-----BEGIN CERTIFICATE-----
MIICzTCCAbUCAQEwDQYJKoZIhvcNAQEFBQAwRTELMAkGA1UEBhMCQVUxEzARBgNV
BAgTClNvbWUtU3RhdGUxITAfBgNVBAoTGEludGVybmV0IFdpZGdpdHMgUHR5IEx0
ZDAeFw0xNjA4MjYxNzE2MTJaFw0xNzA4MjYxNzE2MTJaMBQxEjAQBgNVBAMTCWxv
Y2FsaG9zdDCCASIwDQYJKoZIhvcNAQEBBQADggEPADCCAQoCggEBAJkIRzZF7jmu
cMpna9TYIpuzWP+eORTE4WQy+w/SVQanZi0EaBJ8N14lMEf2Ti0hwgIw13OvpGOp
kY4edmdFC7cABm32v3v7IetWSYoqwizUdSmp22do1wmcZqfRzQRApuv4yG6Rq+Pk
LFXET2CpG4tYgYTF/2g97/cTWBQqnaMKk1RzjmybKjrDSxG8/raz12yDN8IsM4Af
lHrqomU+FSJGcbVPV+o4Q2cJFhdRFV8hscKS27GZqHq3kIxlGOZhwfyO6a/Tok1o
enZQ4NLNEwAepDhZHAGIRNRqzT9aQZkILOdBzZNeGshMw/mjqixiK+4LB3bN227n
eq3d3sVaJEsCAwEAATANBgkqhkiG9w0BAQUFAAOCAQEAtG7LPB5Up7xasQTcm8rQ
CYzTanIjjj+hTA73MPx26j9NFrqyEhdMCk1yOLFFWtBCjbcxEM7S0Ft5eL5CIRhw
SuNk4PyO53xcDFqfP2j0ypTz73Y6+xjs6Mt2zfRO3mphimC1ti37gAHBICJ7HX93
8rVNsQGxEurAAjX5lS0FNRfvaopbWFYohz5XQ68rPkdRx5m6hZo3nRC5q7XXlv4R
NYZLMuRDt9siPEnNJ/s7jpmGd1QLZ4Gr/Ip2bF8nXqOMbSarGgWsAM0PmsHYLIZa
5ma90ciN5O25BfiXq+uHILRXbY1jJS/lYjKSccZs370xo3EZw9zUBbYGcHcr6EoW
qQ==
-----END CERTIFICATE-----
