Certificate:
    Data:
        Version: 1 (0x0)
        Serial Number: 2 (0x2)
        Signature Algorithm: sha1WithRSAEncryption
        Issuer: C=AU, ST=Some-State, O=Internet Widgits Pty Ltd
        Validity
            Not Before: Aug 26 17:24:49 2016 GMT
            Not After : Aug 26 17:24:49 2017 GMT
        Subject: CN=localhost
        Subject Public Key Info:
            Public Key Algorithm: rsaEncryption
            RSA Public Key: (2048 bit)
                Modulus (2048 bit):
                    00:a0:8b:88:c1:1b:56:84:bc:e6:1b:91:b8:da:d6:
                    60:72:af:06:57:42:49:67:57:1e:a2:31:55:40:c5:
                    9f:95:b3:f6:6d:90:7a:f9:25:fd:ee:e3:58:6f:7c:
                    dc:ac:c4:81:e6:f9:28:77:0b:4d:ca:39:6e:a4:ed:
                    02:b3:bd:7f:35:a8:bc:02:b0:db:bd:75:88:2b:ed:
                    65:24:5d:f2:5e:14:79:28:b1:06:6d:fa:15:0e:1a:
                    95:60:c8:1e:95:66:aa:10:4d:4e:87:92:69:86:60:
                    86:93:6e:32:62:b6:fd:17:85:46:8c:ff:ef:0c:9b:
                    cf:b4:67:45:df:1e:02:34:8e:46:4f:f4:fc:df:42:
                    fa:ec:ca:1f:87:68:cb:1c:bd:89:da:04:3f:f3:ec:
                    aa:0a:f6:0c:42:9c:d5:db:0d:27:3f:65:07:cf:0e:
                    d6:d3:49:91:59:0e:d6:d0:a0:31:f5:a0:e1:e3:35:
                    e2:aa:96:a1:22:bf:dc:fd:45:50:07:cd:40:7f:ba:
                    44:c3:dd:15:1c:c8:0f:f4:93:f1:c7:32:27:b7:e7:
                    fd:14:fd:c1:d9:02:6c:eb:f5:84:d7:f0:56:57:d2:
                    4e:f4:a4:4e:8d:27:47:09:68:27:9b:56:32:9f:aa:
                    ab:e8:d5:88:4e:88:5a:27:f8:06:68:2c:6e:18:4d:
                    b0:c5
                Exponent: 65537 (0x10001)
    Signature Algorithm: sha1WithRSAEncryption
        5e:dc:ac:95:ab:8d:21:3c:9c:1c:5b:f7:43:4b:8e:c5:71:94:
        0d:7a:e3:db:15:03:3c:ca:c2:06:69:96:ea:44:35:4a:ba:ba:
        25:45:7d:be:73:ce:13:59:0c:da:c6:9a:3a:cf:54:a7:2d:ff:
        3c:14:a3:07:22:9a:55:c5:b3:58:56:6c:f7:87:95:d7:f9:ce:
        45:16:4b:23:7c:f8:4f:05:55:fd:6e:f5:52:7b:f8:d9:77:32:
        8b:0f:c7:ef:74:1f:dd:71:2f:ac:b0:c1:be:d0:c2:11:1d:97:
        e4:65:05:e0:5c:64:ac:35:7b:d7:44:55:5b:82:b3:75:ec:e1:
        21:f6:06:a2:60:b5:16:ec:bf:1c:43:14:eb:73:ec:7d:aa:cf:
        e1:c7:33:a4:09:56:40:d5:45:3a:02:31:29:73:cf:91:9d:8e:
        58:ab:be:7f:3d:77:78:36:f6:cc:d0:9c:73:87:23:14:0e:fb:
        fb:27:a3:4a:ab:28:e8:52:07:b1:35:da:67:ac:ab:58:55:e2:
        22:ac:6f:f4:64:7d:59:e8:42:3f:fc:2a:16:d7:7a:42:ba:f9:
        8d:1c:8a:6f:2f:4c:66:0b:d5:c3:b0:71:4d:7d:6d:9d:52:c4:
        2e:7c:66:9a:44:9b:e6:46:12:ec:17:4a:e0:56:c8:b5:87:c8:
        b1:43:ba:b4
-----BEGIN CERTIFICATE-----
MIICzTCCAbUCAQIwDQYJKoZIhvcNAQEFBQAwRTELMAkGA1UEBhMCQVUxEzARBgNV
BAgTClNvbWUtU3RhdGUxITAfBgNVBAoTGEludGVybmV0IFdpZGdpdHMgUHR5IEx0
ZDAeFw0xNjA4MjYxNzI0NDlaFw0xNzA4MjYxNzI0NDlaMBQxEjAQBgNVBAMTCWxv
Y2FsaG9zdDCCASIwDQYJKoZIhvcNAQEBBQADggEPADCCAQoCggEBAKCLiMEbVoS8
5huRuNrWYHKvBldCSWdXHqIxVUDFn5Wz9m2Qevkl/e7jWG983KzEgeb5KHcLTco5
bqTtArO9fzWovAKw2711iCvtZSRd8l4UeSixBm36FQ4alWDIHpVmqhBNToeSaYZg
hpNuMmK2/ReFRoz/7wybz7RnRd8eAjSORk/0/N9C+uzKH4doyxy9idoEP/Psqgr2
DEKc1dsNJz9lB88O1tNJkVkO1tCgMfWg4eM14qqWoSK/3P1FUAfNQH+6RMPdFRzI
D/ST8ccyJ7fn/RT9wdkCbOv1hNfwVlfSTvSkTo0nRwloJ5tWMp+qq+jViE6IWif4
BmgsbhhNsMUCAwEAATANBgkqhkiG9w0BAQUFAAOCAQEAXtyslauNITycHFv3Q0uO
xXGUDXrj2xUDPMrCBmmW6kQ1Srq6JUV9vnPOE1kM2saaOs9Upy3/PBSjByKaVcWz
WFZs94eV1/nORRZLI3z4TwVV/W71Unv42Xcyiw/H73Qf3XEvrLDBvtDCER2X5GUF
4FxkrDV710RVW4KzdezhIfYGomC1Fuy/HEMU63PsfarP4cczpAlWQNVFOgIxKXPP
kZ2OWKu+fz13eDb2zNCcc4cjFA77+yejSqso6FIHsTXaZ6yrWFXiIqxv9GR9WehC
P/wqFtd6Qrr5jRyKby9MZgvVw7BxTX1tnVLELnxmmkSb5kYS7BdK4FbItYfIsUO6
tA==
-----END CERTIFICATE-----
